; Function Attrs: nounwind uwtable
define internal void @write_tables_only(ptr noundef %0) #0 {
  %2 = getelementptr inbounds nuw i8, ptr %0, i64 40
  %3 = load ptr, ptr %2, align 8, !tbaa !38
  %4 = load ptr, ptr %3, align 8, !tbaa !39
  %5 = getelementptr inbounds nuw i8, ptr %4, i64 1
  store ptr %5, ptr %3, align 8, !tbaa !39
  store i8 -1, ptr %4, align 1, !tbaa !42
  %6 = getelementptr inbounds nuw i8, ptr %3, i64 8
  %7 = load i64, ptr %6, align 8, !tbaa !43
  %8 = add i64 %7, -1
  store i64 %8, ptr %6, align 8, !tbaa !43
  %9 = icmp eq i64 %8, 0
  br i1 %9, label %10, label %emit_byte.exit.i

10:                                               ; preds = %1
  %11 = getelementptr inbounds nuw i8, ptr %3, i64 24
  %12 = load ptr, ptr %11, align 8, !tbaa !44
  %13 = tail call i32 %12(ptr noundef nonnull %0) #3
  %.not.i.i = icmp eq i32 %13, 0
  br i1 %.not.i.i, label %14, label %emit_byte.exit.i

14:                                               ; preds = %10
  %15 = load ptr, ptr %0, align 8, !tbaa !45
  %16 = getelementptr inbounds nuw i8, ptr %15, i64 40
  store i32 24, ptr %16, align 8, !tbaa !46
  %17 = load ptr, ptr %15, align 8, !tbaa !49
  tail call void %17(ptr noundef nonnull %0) #3
  br label %emit_byte.exit.i

emit_byte.exit.i:                                 ; preds = %14, %10, %1
  %18 = load ptr, ptr %2, align 8, !tbaa !38
  %19 = load ptr, ptr %18, align 8, !tbaa !39
  %20 = getelementptr inbounds nuw i8, ptr %19, i64 1
  store ptr %20, ptr %18, align 8, !tbaa !39
  store i8 -40, ptr %19, align 1, !tbaa !42
  %21 = getelementptr inbounds nuw i8, ptr %18, i64 8
  %22 = load i64, ptr %21, align 8, !tbaa !43
  %23 = add i64 %22, -1
  store i64 %23, ptr %21, align 8, !tbaa !43
  %24 = icmp eq i64 %23, 0
  br i1 %24, label %25, label %emit_marker.exit

25:                                               ; preds = %emit_byte.exit.i
  %26 = getelementptr inbounds nuw i8, ptr %18, i64 24
  %27 = load ptr, ptr %26, align 8, !tbaa !44
  %28 = tail call i32 %27(ptr noundef nonnull %0) #3
  %.not.i2.i = icmp eq i32 %28, 0
  br i1 %.not.i2.i, label %29, label %emit_marker.exit

29:                                               ; preds = %25
  %30 = load ptr, ptr %0, align 8, !tbaa !45
  %31 = getelementptr inbounds nuw i8, ptr %30, i64 40
  store i32 24, ptr %31, align 8, !tbaa !46
  %32 = load ptr, ptr %30, align 8, !tbaa !49
  tail call void %32(ptr noundef nonnull %0) #3
  br label %emit_marker.exit

emit_marker.exit:                                 ; preds = %emit_byte.exit.i, %25, %29
  %33 = getelementptr inbounds nuw i8, ptr %0, i64 96
  br label %34

34:                                               ; preds = %emit_marker.exit, %40
  %indvars.iv = phi i64 [ 0, %emit_marker.exit ], [ %indvars.iv.next, %40 ]
  %35 = getelementptr inbounds nuw [4 x ptr], ptr %33, i64 0, i64 %indvars.iv
  %36 = load ptr, ptr %35, align 8, !tbaa !78
  %.not20 = icmp eq ptr %36, null
  br i1 %.not20, label %40, label %37

37:                                               ; preds = %34
  %38 = trunc nuw nsw i64 %indvars.iv to i32
  %39 = tail call fastcc i32 @emit_dqt(ptr noundef nonnull %0, i32 noundef %38)
  br label %40

40:                                               ; preds = %34, %37
  %indvars.iv.next = add nuw nsw i64 %indvars.iv, 1
  %exitcond.not = icmp eq i64 %indvars.iv.next, 4
  br i1 %exitcond.not, label %41, label %34, !llvm.loop !87

41:                                               ; preds = %40
  %42 = getelementptr inbounds nuw i8, ptr %0, i64 260
  %43 = load i32, ptr %42, align 4, !tbaa !67
  %.not = icmp eq i32 %43, 0
  br i1 %.not, label %.preheader, label %.loopexit

.preheader:                                       ; preds = %41
  %44 = getelementptr inbounds nuw i8, ptr %0, i64 128
  %45 = getelementptr inbounds nuw i8, ptr %0, i64 160
  br label %46

46:                                               ; preds = %.preheader, %56
  %indvars.iv28 = phi i64 [ 0, %.preheader ], [ %indvars.iv.next29, %56 ]
  %47 = getelementptr inbounds nuw [4 x ptr], ptr %44, i64 0, i64 %indvars.iv28
  %48 = load ptr, ptr %47, align 8, !tbaa !78
  %.not18 = icmp eq ptr %48, null
  br i1 %.not18, label %51, label %49

49:                                               ; preds = %46
  %50 = trunc nuw nsw i64 %indvars.iv28 to i32
  tail call fastcc void @emit_dht(ptr noundef nonnull %0, i32 noundef %50, i32 noundef 0)
  br label %51

51:                                               ; preds = %49, %46
  %52 = getelementptr inbounds nuw [4 x ptr], ptr %45, i64 0, i64 %indvars.iv28
  %53 = load ptr, ptr %52, align 8, !tbaa !78
  %.not19 = icmp eq ptr %53, null
  br i1 %.not19, label %56, label %54

54:                                               ; preds = %51
  %55 = trunc nuw nsw i64 %indvars.iv28 to i32
  tail call fastcc void @emit_dht(ptr noundef nonnull %0, i32 noundef %55, i32 noundef 1)
  br label %56

56:                                               ; preds = %51, %54
  %indvars.iv.next29 = add nuw nsw i64 %indvars.iv28, 1
  %exitcond31.not = icmp eq i64 %indvars.iv.next29, 4
  br i1 %exitcond31.not, label %.loopexit, label %46, !llvm.loop !88

.loopexit:                                        ; preds = %56, %41
  %57 = load ptr, ptr %2, align 8, !tbaa !38
  %58 = load ptr, ptr %57, align 8, !tbaa !39
  %59 = getelementptr inbounds nuw i8, ptr %58, i64 1
  store ptr %59, ptr %57, align 8, !tbaa !39
  store i8 -1, ptr %58, align 1, !tbaa !42
  %60 = getelementptr inbounds nuw i8, ptr %57, i64 8
  %61 = load i64, ptr %60, align 8, !tbaa !43
  %62 = add i64 %61, -1
  store i64 %62, ptr %60, align 8, !tbaa !43
  %63 = icmp eq i64 %62, 0
  br i1 %63, label %64, label %emit_byte.exit.i21

64:                                               ; preds = %.loopexit
  %65 = getelementptr inbounds nuw i8, ptr %57, i64 24
  %66 = load ptr, ptr %65, align 8, !tbaa !44
  %67 = tail call i32 %66(ptr noundef nonnull %0) #3
  %.not.i.i23 = icmp eq i32 %67, 0
  br i1 %.not.i.i23, label %68, label %emit_byte.exit.i21

68:                                               ; preds = %64
  %69 = load ptr, ptr %0, align 8, !tbaa !45
  %70 = getelementptr inbounds nuw i8, ptr %69, i64 40
  store i32 24, ptr %70, align 8, !tbaa !46
  %71 = load ptr, ptr %69, align 8, !tbaa !49
  tail call void %71(ptr noundef nonnull %0) #3
  br label %emit_byte.exit.i21

emit_byte.exit.i21:                               ; preds = %68, %64, %.loopexit
  %72 = load ptr, ptr %2, align 8, !tbaa !38
  %73 = load ptr, ptr %72, align 8, !tbaa !39
  %74 = getelementptr inbounds nuw i8, ptr %73, i64 1
  store ptr %74, ptr %72, align 8, !tbaa !39
  store i8 -39, ptr %73, align 1, !tbaa !42
  %75 = getelementptr inbounds nuw i8, ptr %72, i64 8
  %76 = load i64, ptr %75, align 8, !tbaa !43
  %77 = add i64 %76, -1
  store i64 %77, ptr %75, align 8, !tbaa !43
  %78 = icmp eq i64 %77, 0
  br i1 %78, label %79, label %emit_marker.exit24

79:                                               ; preds = %emit_byte.exit.i21
  %80 = getelementptr inbounds nuw i8, ptr %72, i64 24
  %81 = load ptr, ptr %80, align 8, !tbaa !44
  %82 = tail call i32 %81(ptr noundef nonnull %0) #3
  %.not.i2.i22 = icmp eq i32 %82, 0
  br i1 %.not.i2.i22, label %83, label %emit_marker.exit24

83:                                               ; preds = %79
  %84 = load ptr, ptr %0, align 8, !tbaa !45
  %85 = getelementptr inbounds nuw i8, ptr %84, i64 40
  store i32 24, ptr %85, align 8, !tbaa !46
  %86 = load ptr, ptr %84, align 8, !tbaa !49
  tail call void %86(ptr noundef nonnull %0) #3
  br label %emit_marker.exit24

emit_marker.exit24:                               ; preds = %emit_byte.exit.i21, %79, %83
  ret void
}